target datalayout = "e-m:e-p270:32:32-p271:32:32-p272:64:64-i64:64-i128:128-f80:128-n8:16:32:64-S128"
target triple = "x86_64-unknown-linux-gnu"

%struct.uv__queue = type { ptr, ptr }
%struct.uv_async_s = type { ptr, ptr, i32, ptr, %struct.uv__queue, %union.anon.0, ptr, i32, ptr, %struct.uv__queue, i32 }
%union.anon.0 = type { [4 x ptr] }
%"class.node::SigintWatchdogBase" = type { ptr }
%"class.v8::IndirectHandleBase" = type { ptr }
%"class.node::MemoryRetainer" = type { ptr }
%"class.node::ListNode" = type { ptr, ptr }
%"class.node::TraceSigintWatchdog" = type <{ %"class.node::HandleWrap", %"class.node::SigintWatchdogBase", i8, [7 x i8], %struct.uv_async_s, i32, [4 x i8] }>
%"class.node::HandleWrap" = type { %"class.node::AsyncWrap", i32, %"class.node::ListNode", ptr }
%"class.node::AsyncWrap" = type { %"class.node::BaseObject", i32, i8, double, double }
%"class.node::BaseObject" = type { %"class.node::MemoryRetainer", %"class.v8::Global.267", ptr, ptr }
%"class.v8::Global.267" = type { %"class.v8::PersistentBase.268" }
%"class.v8::PersistentBase.268" = type { %"class.v8::IndirectHandleBase" }
%class.anon.273 = type { i8 }

; Function Attrs: mustprogress nounwind uwtable
define internal void @"_ZZN4node19TraceSigintWatchdog12HandleSigintEvENK3$_0clEPN2v87IsolateEPv"(ptr noundef nonnull align 1 dereferenceable(1) %this, ptr noundef %isolate, ptr noundef %data) #4 align 2 {
entry:
  %this.addr = alloca ptr, align 8
  %isolate.addr = alloca ptr, align 8
  %data.addr = alloca ptr, align 8
  %self = alloca ptr, align 8
  store ptr %this, ptr %this.addr, align 8
  store ptr %isolate, ptr %isolate.addr, align 8
  store ptr %data, ptr %data.addr, align 8
  %0 = load ptr, ptr %data.addr, align 8
  store ptr %0, ptr %self, align 8
  %1 = load ptr, ptr %self, align 8
  %signal_flag_ = getelementptr inbounds %"class.node::TraceSigintWatchdog", ptr %1, i32 0, i32 5
  %2 = load i32, ptr %signal_flag_, align 8
  %cmp = icmp eq i32 %2, 0
  br i1 %cmp, label %if.then, label %if.end

if.then:                                          ; preds = %entry
  %3 = load ptr, ptr %self, align 8
  %signal_flag_2 = getelementptr inbounds %"class.node::TraceSigintWatchdog", ptr %3, i32 0, i32 5
  store i32 2, ptr %signal_flag_2, align 8
  br label %if.end

if.end:                                           ; preds = %if.then, %entry
  %4 = load ptr, ptr %self, align 8
  call void @_ZN4node19TraceSigintWatchdog15HandleInterruptEv(ptr noundef nonnull align 8 dereferenceable(236) %4)
  ret void
}

; Function Attrs: mustprogress nounwind uwtable
define internal void @"_ZZN4node19TraceSigintWatchdog12HandleSigintEvEN3$_08__invokeEPN2v87IsolateEPv"(ptr noundef %isolate, ptr noundef %data) #4 align 2 {
entry:
  %isolate.addr = alloca ptr, align 8
  %data.addr = alloca ptr, align 8
  %unused.capture = alloca %class.anon.273, align 1
  store ptr %isolate, ptr %isolate.addr, align 8
  store ptr %data, ptr %data.addr, align 8
  %0 = load ptr, ptr %isolate.addr, align 8
  %1 = load ptr, ptr %data.addr, align 8
  call void @"_ZZN4node19TraceSigintWatchdog12HandleSigintEvENK3$_0clEPN2v87IsolateEPv"(ptr noundef nonnull align 1 dereferenceable(1) %unused.capture, ptr noundef %0, ptr noundef %1)
  ret void
}