; Function Attrs: mustprogress nounwind uwtable
define internal void @"_ZZN4node19TraceSigintWatchdog12HandleSigintEvEN3$_08__invokeEPN2v87IsolateEPv"(ptr nocapture readnone %isolate, ptr noundef %data) #3 align 2 {
entry:
  %signal_flag_.i = getelementptr inbounds i8, ptr %data, i64 232
  %0 = load i32, ptr %signal_flag_.i, align 8
  %cmp.i = icmp eq i32 %0, 0
  br i1 %cmp.i, label %if.then.i, label %"_ZZN4node19TraceSigintWatchdog12HandleSigintEvENK3$_0clEPN2v87IsolateEPv.exit"

if.then.i:                                        ; preds = %entry
  store i32 2, ptr %signal_flag_.i, align 8
  br label %"_ZZN4node19TraceSigintWatchdog12HandleSigintEvENK3$_0clEPN2v87IsolateEPv.exit"

"_ZZN4node19TraceSigintWatchdog12HandleSigintEvENK3$_0clEPN2v87IsolateEPv.exit": ; preds = %entry, %if.then.i
  tail call void @_ZN4node19TraceSigintWatchdog15HandleInterruptEv(ptr noundef nonnull align 8 dereferenceable(236) %data)
  ret void
}